target datalayout = "e-m:e-p270:32:32-p271:32:32-p272:64:64-i64:64-i128:128-f80:128-n8:16:32:64-S128"
target triple = "x86_64-pc-linux-gnu"

%struct.wtap = type { ptr, ptr, i8, i32, i32, ptr, ptr, ptr, i32, ptr, ptr, ptr, ptr, ptr, ptr, ptr, ptr, ptr, ptr, i32, i32, ptr, ptr, ptr, ptr }

; Function Attrs: null_pointer_is_valid sspstrong uwtable
define internal zeroext i1 @vms_seek_read(ptr noundef %0, i64 noundef %1, ptr noundef %2, ptr noundef %3, ptr noundef %4) #0 {
  %6 = alloca i1, align 1
  %7 = alloca ptr, align 8
  %8 = alloca i64, align 8
  %9 = alloca ptr, align 8
  %10 = alloca ptr, align 8
  %11 = alloca ptr, align 8
  store ptr %0, ptr %7, align 8
  store i64 %1, ptr %8, align 8
  store ptr %2, ptr %9, align 8
  store ptr %3, ptr %10, align 8
  store ptr %4, ptr %11, align 8
  %12 = load ptr, ptr %7, align 8
  %13 = getelementptr inbounds nuw %struct.wtap, ptr %12, i32 0, i32 1
  %14 = load ptr, ptr %13, align 8
  %15 = load i64, ptr %8, align 8
  %16 = sub i64 %15, 1
  %17 = load ptr, ptr %10, align 8
  %18 = call i64 @file_seek(ptr noundef %14, i64 noundef %16, i32 noundef 0, ptr noundef %17)
  %19 = icmp eq i64 %18, -1
  br i1 %19, label %20, label %21

20:                                               ; preds = %5
  store i1 false, ptr %6, align 1
  br label %37

21:                                               ; preds = %5
  %22 = load ptr, ptr %7, align 8
  %23 = getelementptr inbounds nuw %struct.wtap, ptr %22, i32 0, i32 1
  %24 = load ptr, ptr %23, align 8
  %25 = load ptr, ptr %9, align 8
  %26 = load ptr, ptr %10, align 8
  %27 = load ptr, ptr %11, align 8
  %28 = call zeroext i1 @parse_vms_packet(ptr noundef %24, ptr noundef %25, ptr noundef %26, ptr noundef %27)
  br i1 %28, label %36, label %29

29:                                               ; preds = %21
  %30 = load ptr, ptr %10, align 8
  %31 = load i32, ptr %30, align 4
  %32 = icmp eq i32 %31, 0
  br i1 %32, label %33, label %35

33:                                               ; preds = %29
  %34 = load ptr, ptr %10, align 8
  store i32 -12, ptr %34, align 4
  br label %35

35:                                               ; preds = %33, %29
  store i1 false, ptr %6, align 1
  br label %37

36:                                               ; preds = %21
  store i1 true, ptr %6, align 1
  br label %37

37:                                               ; preds = %36, %35, %20
  %38 = load i1, ptr %6, align 1
  ret i1 %38
}